target datalayout = "e-m:e-p270:32:32-p271:32:32-p272:64:64-i64:64-i128:128-f80:128-n8:16:32:64-S128"
target triple = "x86_64-pc-linux-gnu"

%struct.Aig_Obj_t_ = type { %union.anon, ptr, ptr, i64, i32, i32, %union.anon.0 }
%union.anon = type { ptr }
%union.anon.0 = type { ptr }
%struct.Aig_Man_t_ = type { ptr, ptr, ptr, ptr, ptr, ptr, ptr, %struct.Aig_Obj_t_, i32, i32, i32, i32, i32, i32, [7 x i32], i32, ptr, i32, ptr, i32, ptr, i32, i32, i32, ptr, i32, i32, i32, i32, i32, ptr, ptr, i32, ptr, ptr, i32, ptr, ptr, i32, i32, i32, ptr, ptr, ptr, ptr, ptr, ptr, ptr, ptr, ptr, ptr, ptr, ptr, ptr, ptr, i32, ptr, ptr, ptr, ptr, i32, i64, i64, i64, ptr, ptr }
%struct.Vec_Ptr_t_ = type { i32, i32, ptr }
%struct.Llb_Mnx_t_ = type { ptr, ptr, ptr, ptr, ptr, ptr, ptr, ptr, ptr, ptr, ptr, i64, i64, i64, i64, i64 }
%struct.Gia_ParLlb_t_ = type { i32, i32, i32, i32, i32, i32, i32, i32, i32, i32, i32, i32, i32, i32, i32, i32, i32, i32, i32, i32, i32, i32, i32, i64, i32 }
%struct.timespec = type { i64, i64 }

@.str.31 = private unnamed_addr constant [70 x i8] c"The number of objects is more than 2^15.  Clustering cannot be used.\0A\00", align 1

; Function Attrs: inlinehint nounwind uwtable
define internal i32 @Vec_PtrSize(ptr noundef %0) #3 {
  %2 = alloca ptr, align 8
  store ptr %0, ptr %2, align 8, !tbaa !31
  %3 = load ptr, ptr %2, align 8, !tbaa !31
  %4 = getelementptr inbounds nuw %struct.Vec_Ptr_t_, ptr %3, i32 0, i32 1
  %5 = load i32, ptr %4, align 4, !tbaa !40
  ret i32 %5
}

; Function Attrs: inlinehint nounwind uwtable
define internal i64 @Abc_Clock() #3 {
  %1 = alloca i64, align 8
  %2 = alloca %struct.timespec, align 8
  %3 = alloca i32, align 4
  %4 = alloca i64, align 8
  call void @llvm.lifetime.start.p0(i64 16, ptr %2) #11
  %5 = call i32 @clock_gettime(i32 noundef 1, ptr noundef %2) #11
  %6 = icmp slt i32 %5, 0
  br i1 %6, label %7, label %8

7:                                                ; preds = %0
  store i64 -1, ptr %1, align 8
  store i32 1, ptr %3, align 4
  br label %19

8:                                                ; preds = %0
  call void @llvm.lifetime.start.p0(i64 8, ptr %4) #11
  %9 = getelementptr inbounds nuw %struct.timespec, ptr %2, i32 0, i32 0
  %10 = load i64, ptr %9, align 8, !tbaa !161
  %11 = mul nsw i64 %10, 1000000
  store i64 %11, ptr %4, align 8, !tbaa !93
  %12 = getelementptr inbounds nuw %struct.timespec, ptr %2, i32 0, i32 1
  %13 = load i64, ptr %12, align 8, !tbaa !163
  %14 = mul nsw i64 %13, 1000000
  %15 = sdiv i64 %14, 1000000000
  %16 = load i64, ptr %4, align 8, !tbaa !93
  %17 = add nsw i64 %16, %15
  store i64 %17, ptr %4, align 8, !tbaa !93
  %18 = load i64, ptr %4, align 8, !tbaa !93
  store i64 %18, ptr %1, align 8
  store i32 1, ptr %3, align 4
  call void @llvm.lifetime.end.p0(i64 8, ptr %4) #11
  br label %19

19:                                               ; preds = %8, %7
  call void @llvm.lifetime.end.p0(i64 16, ptr %2) #11
  %20 = load i64, ptr %1, align 8
  ret i64 %20
}

; Function Attrs: inlinehint nounwind uwtable
define internal i32 @Aig_ManObjNum(ptr noundef %0) #3 {
  %2 = alloca ptr, align 8
  store ptr %0, ptr %2, align 8, !tbaa !8
  %3 = load ptr, ptr %2, align 8, !tbaa !8
  %4 = getelementptr inbounds nuw %struct.Aig_Man_t_, ptr %3, i32 0, i32 4
  %5 = load ptr, ptr %4, align 8, !tbaa !49
  %6 = call i32 @Vec_PtrSize(ptr noundef %5)
  %7 = load ptr, ptr %2, align 8, !tbaa !8
  %8 = getelementptr inbounds nuw %struct.Aig_Man_t_, ptr %7, i32 0, i32 15
  %9 = load i32, ptr %8, align 4, !tbaa !155
  %10 = sub nsw i32 %6, %9
  ret i32 %10
}

; Function Attrs: nounwind uwtable
define i32 @Llb_Nonlin4CoreReach(ptr noundef %0, ptr noundef %1) #0 {
  %3 = alloca i32, align 4
  %4 = alloca ptr, align 8
  %5 = alloca ptr, align 8
  %6 = alloca ptr, align 8
  %7 = alloca i32, align 4
  %8 = alloca i32, align 4
  %9 = alloca i64, align 8
  store ptr %0, ptr %4, align 8, !tbaa !8
  store ptr %1, ptr %5, align 8, !tbaa !143
  call void @llvm.lifetime.start.p0(i64 8, ptr %6) #11
  call void @llvm.lifetime.start.p0(i64 4, ptr %7) #11
  store i32 -1, ptr %7, align 4, !tbaa !13
  %10 = load ptr, ptr %5, align 8, !tbaa !143
  %11 = getelementptr inbounds nuw %struct.Gia_ParLlb_t_, ptr %10, i32 0, i32 16
  %12 = load i32, ptr %11, align 8, !tbaa !128
  %13 = icmp ne i32 %12, 0
  br i1 %13, label %14, label %16

14:                                               ; preds = %2
  %15 = load ptr, ptr %4, align 8, !tbaa !8
  call void @Aig_ManPrintStats(ptr noundef %15)
  br label %16

16:                                               ; preds = %14, %2
  %17 = load ptr, ptr %5, align 8, !tbaa !143
  %18 = getelementptr inbounds nuw %struct.Gia_ParLlb_t_, ptr %17, i32 0, i32 13
  %19 = load i32, ptr %18, align 4, !tbaa !119
  %20 = icmp ne i32 %19, 0
  br i1 %20, label %21, label %28

21:                                               ; preds = %16
  %22 = load ptr, ptr %4, align 8, !tbaa !8
  %23 = call i32 @Aig_ManObjNum(ptr noundef %22)
  %24 = icmp sge i32 %23, 32768
  br i1 %24, label %25, label %28

25:                                               ; preds = %21
  %26 = call i32 (ptr, ...) @printf(ptr noundef @.str.31)
  %27 = load i32, ptr %7, align 4, !tbaa !13
  store i32 %27, ptr %3, align 4
  store i32 1, ptr %8, align 4
  br label %48

28:                                               ; preds = %21, %16
  call void @llvm.lifetime.start.p0(i64 8, ptr %9) #11
  %29 = call i64 @Abc_Clock()
  store i64 %29, ptr %9, align 8, !tbaa !93
  %30 = load ptr, ptr %4, align 8, !tbaa !8
  %31 = load ptr, ptr %5, align 8, !tbaa !143
  %32 = call ptr @Llb_MnxStart(ptr noundef %30, ptr noundef %31)
  store ptr %32, ptr %6, align 8, !tbaa !100
  %33 = load ptr, ptr %5, align 8, !tbaa !143
  %34 = getelementptr inbounds nuw %struct.Gia_ParLlb_t_, ptr %33, i32 0, i32 19
  %35 = load i32, ptr %34, align 4, !tbaa !154
  %36 = icmp ne i32 %35, 0
  br i1 %36, label %40, label %37

37:                                               ; preds = %28
  %38 = load ptr, ptr %6, align 8, !tbaa !100
  %39 = call i32 @Llb_Nonlin4Reachability(ptr noundef %38)
  store i32 %39, ptr %7, align 4, !tbaa !13
  br label %40

40:                                               ; preds = %37, %28
  %41 = call i64 @Abc_Clock()
  %42 = load i64, ptr %9, align 8, !tbaa !93
  %43 = sub nsw i64 %41, %42
  %44 = load ptr, ptr %6, align 8, !tbaa !100
  %45 = getelementptr inbounds nuw %struct.Llb_Mnx_t_, ptr %44, i32 0, i32 15
  store i64 %43, ptr %45, align 8, !tbaa !149
  %46 = load ptr, ptr %6, align 8, !tbaa !100
  call void @Llb_MnxStop(ptr noundef %46)
  call void @llvm.lifetime.end.p0(i64 8, ptr %9) #11
  %47 = load i32, ptr %7, align 4, !tbaa !13
  store i32 %47, ptr %3, align 4
  store i32 1, ptr %8, align 4
  br label %48

48:                                               ; preds = %40, %25
  call void @llvm.lifetime.end.p0(i64 4, ptr %7) #11
  call void @llvm.lifetime.end.p0(i64 8, ptr %6) #11
  %49 = load i32, ptr %3, align 4
  ret i32 %49
}