; Function Attrs: nounwind uwtable
define range(i32 -1, 2) i32 @Llb_Nonlin4CoreReach(ptr noundef %0, ptr noundef %1) local_unnamed_addr #0 {
  %3 = alloca %struct.timespec, align 8
  %4 = alloca %struct.timespec, align 8
  %5 = getelementptr inbounds nuw i8, ptr %1, i64 64
  %6 = load i32, ptr %5, align 8, !tbaa !117
  %.not = icmp eq i32 %6, 0
  br i1 %.not, label %8, label %7

7:                                                ; preds = %2
  tail call void @Aig_ManPrintStats(ptr noundef %0) #18
  br label %8

8:                                                ; preds = %7, %2
  %9 = getelementptr inbounds nuw i8, ptr %1, i64 52
  %10 = load i32, ptr %9, align 4, !tbaa !108
  %.not14 = icmp eq i32 %10, 0
  br i1 %.not14, label %18, label %11

11:                                               ; preds = %8
  %12 = getelementptr i8, ptr %0, i64 32
  %.val = load ptr, ptr %12, align 8, !tbaa !43
  %13 = getelementptr i8, ptr %0, i64 156
  %.val16 = load i32, ptr %13, align 4, !tbaa !144
  %14 = getelementptr i8, ptr %.val, i64 4
  %.val.val = load i32, ptr %14, align 4, !tbaa !23
  %15 = sub nsw i32 %.val.val, %.val16
  %16 = icmp sgt i32 %15, 32767
  br i1 %16, label %17, label %18

17:                                               ; preds = %11
  %puts = tail call i32 @puts(ptr nonnull dereferenceable(1) @str)
  br label %42

18:                                               ; preds = %11, %8
  call void @llvm.lifetime.start.p0(i64 16, ptr nonnull %4) #18
  %19 = call i32 @clock_gettime(i32 noundef 1, ptr noundef nonnull %4) #18
  %20 = icmp slt i32 %19, 0
  br i1 %20, label %Abc_Clock.exit, label %21

21:                                               ; preds = %18
  %22 = load i64, ptr %4, align 8, !tbaa !101
  %.neg19 = mul i64 %22, -1000000
  %23 = getelementptr inbounds nuw i8, ptr %4, i64 8
  %24 = load i64, ptr %23, align 8, !tbaa !103
  %.neg = sdiv i64 %24, -1000
  %.neg20 = add i64 %.neg, %.neg19
  br label %Abc_Clock.exit

Abc_Clock.exit:                                   ; preds = %18, %21
  %.0.i.neg = phi i64 [ %.neg20, %21 ], [ 1, %18 ]
  call void @llvm.lifetime.end.p0(i64 16, ptr nonnull %4) #18
  %25 = call ptr @Llb_MnxStart(ptr noundef %0, ptr noundef nonnull %1)
  %26 = getelementptr inbounds nuw i8, ptr %1, i64 76
  %27 = load i32, ptr %26, align 4, !tbaa !145
  %.not15 = icmp eq i32 %27, 0
  br i1 %.not15, label %28, label %30

28:                                               ; preds = %Abc_Clock.exit
  %29 = call i32 @Llb_Nonlin4Reachability(ptr noundef %25)
  br label %30

30:                                               ; preds = %28, %Abc_Clock.exit
  %.013 = phi i32 [ -1, %Abc_Clock.exit ], [ %29, %28 ]
  call void @llvm.lifetime.start.p0(i64 16, ptr nonnull %3) #18
  %31 = call i32 @clock_gettime(i32 noundef 1, ptr noundef nonnull %3) #18
  %32 = icmp slt i32 %31, 0
  br i1 %32, label %Abc_Clock.exit18, label %33

33:                                               ; preds = %30
  %34 = load i64, ptr %3, align 8, !tbaa !101
  %35 = mul nsw i64 %34, 1000000
  %36 = getelementptr inbounds nuw i8, ptr %3, i64 8
  %37 = load i64, ptr %36, align 8, !tbaa !103
  %38 = sdiv i64 %37, 1000
  %39 = add nsw i64 %38, %35
  br label %Abc_Clock.exit18

Abc_Clock.exit18:                                 ; preds = %30, %33
  %.0.i17 = phi i64 [ %39, %33 ], [ -1, %30 ]
  call void @llvm.lifetime.end.p0(i64 16, ptr nonnull %3) #18
  %40 = add i64 %.0.i17, %.0.i.neg
  %41 = getelementptr inbounds nuw i8, ptr %25, i64 120
  store i64 %40, ptr %41, align 8, !tbaa !137
  call void @Llb_MnxStop(ptr noundef %25)
  br label %42

42:                                               ; preds = %Abc_Clock.exit18, %17
  %.0 = phi i32 [ -1, %17 ], [ %.013, %Abc_Clock.exit18 ]
  ret i32 %.0
}